; Function Attrs: nounwind uwtable
define dso_local range(i32 -1, 1) i32 @zslParseLexRangeItem(ptr noundef readonly captures(none) %0, ptr noundef writeonly captures(none) %1, ptr noundef writeonly captures(none) %2) local_unnamed_addr #0 {
  %4 = getelementptr inbounds nuw i8, ptr %0, i64 8
  %5 = load ptr, ptr %4, align 8, !tbaa !75
  %6 = load i8, ptr %5, align 1, !tbaa !77
  switch i8 %6, label %69 [
    i8 43, label %7
    i8 45, label %12
    i8 40, label %17
    i8 91, label %43
  ]

7:                                                ; preds = %3
  %8 = getelementptr inbounds nuw i8, ptr %5, i64 1
  %9 = load i8, ptr %8, align 1, !tbaa !77
  %.not16 = icmp eq i8 %9, 0
  br i1 %.not16, label %10, label %69

10:                                               ; preds = %7
  store i32 1, ptr %2, align 4, !tbaa !78
  %11 = load ptr, ptr getelementptr inbounds nuw (i8, ptr @shared, i64 81912), align 8, !tbaa !64
  br label %.sink.split

12:                                               ; preds = %3
  %13 = getelementptr inbounds nuw i8, ptr %5, i64 1
  %14 = load i8, ptr %13, align 1, !tbaa !77
  %.not = icmp eq i8 %14, 0
  br i1 %.not, label %15, label %69

15:                                               ; preds = %12
  store i32 1, ptr %2, align 4, !tbaa !78
  %16 = load ptr, ptr getelementptr inbounds nuw (i8, ptr @shared, i64 81904), align 8, !tbaa !61
  br label %.sink.split

17:                                               ; preds = %3
  store i32 1, ptr %2, align 4, !tbaa !78
  %18 = getelementptr inbounds nuw i8, ptr %5, i64 1
  %19 = getelementptr inbounds i8, ptr %5, i64 -1
  %20 = load i8, ptr %19, align 1, !tbaa !77
  %21 = zext i8 %20 to i32
  %22 = and i32 %21, 7
  switch i32 %22, label %sdslen.exit [
    i32 0, label %23
    i32 1, label %26
    i32 2, label %30
    i32 3, label %34
    i32 4, label %38
  ]

23:                                               ; preds = %17
  %24 = lshr i32 %21, 3
  %25 = zext nneg i32 %24 to i64
  br label %sdslen.exit

26:                                               ; preds = %17
  %27 = getelementptr inbounds i8, ptr %5, i64 -3
  %28 = load i8, ptr %27, align 1, !tbaa !77
  %29 = zext i8 %28 to i64
  br label %sdslen.exit

30:                                               ; preds = %17
  %31 = getelementptr inbounds i8, ptr %5, i64 -5
  %32 = load i16, ptr %31, align 1, !tbaa !79
  %33 = zext i16 %32 to i64
  br label %sdslen.exit

34:                                               ; preds = %17
  %35 = getelementptr inbounds i8, ptr %5, i64 -9
  %36 = load i32, ptr %35, align 1, !tbaa !78
  %37 = zext i32 %36 to i64
  br label %sdslen.exit

38:                                               ; preds = %17
  %39 = getelementptr inbounds i8, ptr %5, i64 -17
  %40 = load i64, ptr %39, align 1, !tbaa !26
  br label %sdslen.exit

sdslen.exit:                                      ; preds = %17, %23, %26, %30, %34, %38
  %.0.i = phi i64 [ %40, %38 ], [ %37, %34 ], [ %33, %30 ], [ %29, %26 ], [ %25, %23 ], [ 0, %17 ]
  %41 = add i64 %.0.i, -1
  %42 = tail call ptr @sdsnewlen(ptr noundef nonnull %18, i64 noundef %41) #18
  br label %.sink.split

43:                                               ; preds = %3
  store i32 0, ptr %2, align 4, !tbaa !78
  %44 = getelementptr inbounds nuw i8, ptr %5, i64 1
  %45 = getelementptr inbounds i8, ptr %5, i64 -1
  %46 = load i8, ptr %45, align 1, !tbaa !77
  %47 = zext i8 %46 to i32
  %48 = and i32 %47, 7
  switch i32 %48, label %sdslen.exit18 [
    i32 0, label %49
    i32 1, label %52
    i32 2, label %56
    i32 3, label %60
    i32 4, label %64
  ]

49:                                               ; preds = %43
  %50 = lshr i32 %47, 3
  %51 = zext nneg i32 %50 to i64
  br label %sdslen.exit18

52:                                               ; preds = %43
  %53 = getelementptr inbounds i8, ptr %5, i64 -3
  %54 = load i8, ptr %53, align 1, !tbaa !77
  %55 = zext i8 %54 to i64
  br label %sdslen.exit18

56:                                               ; preds = %43
  %57 = getelementptr inbounds i8, ptr %5, i64 -5
  %58 = load i16, ptr %57, align 1, !tbaa !79
  %59 = zext i16 %58 to i64
  br label %sdslen.exit18

60:                                               ; preds = %43
  %61 = getelementptr inbounds i8, ptr %5, i64 -9
  %62 = load i32, ptr %61, align 1, !tbaa !78
  %63 = zext i32 %62 to i64
  br label %sdslen.exit18

64:                                               ; preds = %43
  %65 = getelementptr inbounds i8, ptr %5, i64 -17
  %66 = load i64, ptr %65, align 1, !tbaa !26
  br label %sdslen.exit18

sdslen.exit18:                                    ; preds = %43, %49, %52, %56, %60, %64
  %.0.i17 = phi i64 [ %66, %64 ], [ %63, %60 ], [ %59, %56 ], [ %55, %52 ], [ %51, %49 ], [ 0, %43 ]
  %67 = add i64 %.0.i17, -1
  %68 = tail call ptr @sdsnewlen(ptr noundef nonnull %44, i64 noundef %67) #18
  br label %.sink.split

.sink.split:                                      ; preds = %10, %15, %sdslen.exit, %sdslen.exit18
  %.sink = phi ptr [ %68, %sdslen.exit18 ], [ %42, %sdslen.exit ], [ %16, %15 ], [ %11, %10 ]
  store ptr %.sink, ptr %1, align 8, !tbaa !9
  br label %69

69:                                               ; preds = %.sink.split, %3, %12, %7
  %.0 = phi i32 [ -1, %7 ], [ -1, %12 ], [ -1, %3 ], [ 0, %.sink.split ]
  ret i32 %.0
}